target datalayout = "e-m:e-p270:32:32-p271:32:32-p272:64:64-i64:64-i128:128-f80:128-n8:16:32:64-S128"
target triple = "x86_64-pc-linux-gnu"

@_mi_prim_reset.advice = internal global i64 8, align 8

; Function Attrs: nounwind uwtable
define internal i32 @unix_madvise(ptr noundef %0, i64 noundef %1, i32 noundef %2) #0 {
  %4 = alloca ptr, align 8
  %5 = alloca i64, align 8
  %6 = alloca i32, align 4
  %7 = alloca i32, align 4
  store ptr %0, ptr %4, align 8, !tbaa !25
  store i64 %1, ptr %5, align 8, !tbaa !8
  store i32 %2, ptr %6, align 4, !tbaa !19
  call void @llvm.lifetime.start.p0(i64 4, ptr %7) #6
  %8 = load ptr, ptr %4, align 8, !tbaa !25
  %9 = load i64, ptr %5, align 8, !tbaa !8
  %10 = load i32, ptr %6, align 4, !tbaa !19
  %11 = call i32 @madvise(ptr noundef %8, i64 noundef %9, i32 noundef %10) #7
  store i32 %11, ptr %7, align 4, !tbaa !19
  %12 = load i32, ptr %7, align 4, !tbaa !19
  %13 = icmp eq i32 %12, 0
  br i1 %13, label %14, label %15

14:                                               ; preds = %3
  br label %18

15:                                               ; preds = %3
  %16 = call ptr @__errno_location() #9
  %17 = load i32, ptr %16, align 4, !tbaa !19
  br label %18

18:                                               ; preds = %15, %14
  %19 = phi i32 [ 0, %14 ], [ %17, %15 ]
  call void @llvm.lifetime.end.p0(i64 4, ptr %7) #6
  ret i32 %19
}

; Function Attrs: nounwind uwtable
define hidden i32 @_mi_prim_reset(ptr noundef %0, i64 noundef %1) #0 {
  %3 = alloca ptr, align 8
  %4 = alloca i64, align 8
  %5 = alloca i32, align 4
  %6 = alloca i64, align 8
  %7 = alloca i32, align 4
  %8 = alloca i64, align 8
  store ptr %0, ptr %3, align 8, !tbaa !25
  store i64 %1, ptr %4, align 8, !tbaa !8
  call void @llvm.lifetime.start.p0(i64 4, ptr %5) #6
  %9 = load atomic i64, ptr @_mi_prim_reset.advice monotonic, align 8
  store i64 %9, ptr %6, align 8
  %10 = load i64, ptr %6, align 8, !tbaa !8
  %11 = trunc i64 %10 to i32
  store i32 %11, ptr %5, align 4, !tbaa !19
  call void @llvm.lifetime.start.p0(i64 4, ptr %7) #6
  br label %12

12:                                               ; preds = %24, %2
  %13 = load ptr, ptr %3, align 8, !tbaa !25
  %14 = load i64, ptr %4, align 8, !tbaa !8
  %15 = load i32, ptr %5, align 4, !tbaa !19
  %16 = call i32 @unix_madvise(ptr noundef %13, i64 noundef %14, i32 noundef %15) #8
  store i32 %16, ptr %7, align 4, !tbaa !19
  %17 = icmp ne i32 %16, 0
  br i1 %17, label %18, label %22

18:                                               ; preds = %12
  %19 = call ptr @__errno_location() #9
  %20 = load i32, ptr %19, align 4, !tbaa !19
  %21 = icmp eq i32 %20, 11
  br label %22

22:                                               ; preds = %18, %12
  %23 = phi i1 [ false, %12 ], [ %21, %18 ]
  br i1 %23, label %24, label %26

24:                                               ; preds = %22
  %25 = call ptr @__errno_location() #9
  store i32 0, ptr %25, align 4, !tbaa !19
  br label %12, !llvm.loop !28

26:                                               ; preds = %22
  %27 = load i32, ptr %7, align 4, !tbaa !19
  %28 = icmp ne i32 %27, 0
  br i1 %28, label %29, label %41

29:                                               ; preds = %26
  %30 = call ptr @__errno_location() #9
  %31 = load i32, ptr %30, align 4, !tbaa !19
  %32 = icmp eq i32 %31, 22
  br i1 %32, label %33, label %41

33:                                               ; preds = %29
  %34 = load i32, ptr %5, align 4, !tbaa !19
  %35 = icmp eq i32 %34, 8
  br i1 %35, label %36, label %41

36:                                               ; preds = %33
  store i64 4, ptr %8, align 8, !tbaa !8
  %37 = load i64, ptr %8, align 8
  store atomic i64 %37, ptr @_mi_prim_reset.advice release, align 8
  %38 = load ptr, ptr %3, align 8, !tbaa !25
  %39 = load i64, ptr %4, align 8, !tbaa !8
  %40 = call i32 @unix_madvise(ptr noundef %38, i64 noundef %39, i32 noundef 4) #8
  store i32 %40, ptr %7, align 4, !tbaa !19
  br label %41

41:                                               ; preds = %36, %33, %29, %26
  %42 = load i32, ptr %7, align 4, !tbaa !19
  call void @llvm.lifetime.end.p0(i64 4, ptr %7) #6
  call void @llvm.lifetime.end.p0(i64 4, ptr %5) #6
  ret i32 %42
}