; Function Attrs: nounwind uwtable
define hidden i32 @_mi_prim_reset(ptr noundef %0, i64 noundef %1) local_unnamed_addr #0 {
  %3 = load atomic i64, ptr @_mi_prim_reset.advice monotonic, align 8
  %4 = trunc nuw nsw i64 %3 to i32
  %5 = tail call i32 @madvise(ptr noundef %0, i64 noundef %1, i32 noundef range(i32 4, 15) %4) #10
  %6 = icmp eq i32 %5, 0
  br i1 %6, label %.critedge11, label %unix_madvise.exit.lr.ph

unix_madvise.exit.lr.ph:                          ; preds = %2
  %7 = tail call ptr @__errno_location() #12
  br label %unix_madvise.exit

unix_madvise.exit:                                ; preds = %unix_madvise.exit.lr.ph, %9
  %8 = load i32, ptr %7, align 4, !tbaa !15
  switch i32 %8, label %.critedge [
    i32 0, label %.critedge11
    i32 11, label %9
  ]

9:                                                ; preds = %unix_madvise.exit
  store i32 0, ptr %7, align 4, !tbaa !15
  %10 = tail call i32 @madvise(ptr noundef %0, i64 noundef %1, i32 noundef range(i32 4, 15) %4) #10
  %11 = icmp eq i32 %10, 0
  br i1 %11, label %.critedge11, label %unix_madvise.exit, !llvm.loop !20

.critedge:                                        ; preds = %unix_madvise.exit
  %12 = icmp eq i32 %8, 22
  %13 = icmp eq i64 %3, 8
  %or.cond = and i1 %13, %12
  br i1 %or.cond, label %14, label %.critedge11

14:                                               ; preds = %.critedge
  store atomic i64 4, ptr @_mi_prim_reset.advice release, align 8
  %15 = tail call i32 @madvise(ptr noundef %0, i64 noundef %1, i32 noundef 4) #10
  %16 = icmp eq i32 %15, 0
  br i1 %16, label %.critedge11, label %17

17:                                               ; preds = %14
  %18 = load i32, ptr %7, align 4, !tbaa !15
  br label %.critedge11

.critedge11:                                      ; preds = %9, %unix_madvise.exit, %2, %17, %14, %.critedge
  %.0 = phi i32 [ %8, %.critedge ], [ %18, %17 ], [ 0, %14 ], [ 0, %2 ], [ 0, %9 ], [ %8, %unix_madvise.exit ]
  ret i32 %.0
}